target datalayout = "e-m:e-p270:32:32-p271:32:32-p272:64:64-i64:64-i128:128-f80:128-n8:16:32:64-S128"
target triple = "x86_64-unknown-linux-gnu"

%struct.vfio_irq_info = type { i32, i32, i32, i32 }
%struct.MemoryRegion = type { %struct.Object, i8, i8, i8, i8, i8, i8, i8, i8, i8, i8, ptr, ptr, ptr, ptr, ptr, ptr, i32, i128, i64, ptr, i64, i8, i8, i8, i8, i8, ptr, i64, i32, %union.anon, %union.anon.0, %union.anon.1, ptr, i32, ptr, ptr, i8 }
%struct.Object = type { ptr, ptr, ptr, i32, ptr }
%union.anon = type { %struct.QTailQLink }
%struct.QTailQLink = type { ptr, ptr }
%union.anon.0 = type { %struct.QTailQLink }
%union.anon.1 = type { %struct.QTailQLink }
%struct.VFIOPCIDevice = type { %struct.PCIDevice, %struct.VFIODevice, %struct.VFIOINTx, i32, ptr, i64, i32, i64, ptr, i32, ptr, ptr, i32, i32, [6 x %struct.VFIOBAR], ptr, ptr, %struct.PCIHostDeviceAddress, %struct.QemuUUID, %struct.EventNotifier, %struct.EventNotifier, ptr, i32, i32, i32, i32, i32, i32, i32, i32, i32, i32, i32, i8, i8, i8, i8, i8, i8, i8, i8, i8, i8, i8, i8, i8, i8, i32, i8, i8, ptr, %struct.Notifier }
%struct.PCIDevice = type { %struct.DeviceState, i8, i8, ptr, ptr, ptr, ptr, ptr, i32, %struct.PCIReqIDCache, [64 x i8], [7 x %struct.PCIIORegion], %struct.AddressSpace, %struct.MemoryRegion, %struct.MemoryRegion, ptr, ptr, [3 x ptr], i8, i8, i32, i8, i32, ptr, ptr, ptr, ptr, ptr, ptr, %struct.MemoryRegion, %struct.MemoryRegion, %struct.MemoryRegion, ptr, i8, i32, i8, %struct.PCIExpressDevice, ptr, ptr, i32, i8, %struct.MemoryRegion, i32, ptr, ptr, ptr, ptr, ptr, i32 }
%struct.DeviceState = type { %struct.Object, ptr, ptr, i8, i8, i64, ptr, i32, i8, ptr, %struct.NamedGPIOListHead, %struct.NamedClockListHead, %struct.BusStateHead, i32, i32, i32, %struct.ResettableState, ptr, %struct.MemReentrancyGuard }
%struct.NamedGPIOListHead = type { ptr }
%struct.NamedClockListHead = type { ptr }
%struct.BusStateHead = type { ptr }
%struct.ResettableState = type { i32, i8, i8 }
%struct.MemReentrancyGuard = type { i8 }
%struct.PCIReqIDCache = type { ptr, i32 }
%struct.PCIIORegion = type { i64, i64, i8, ptr, ptr }
%struct.AddressSpace = type { %struct.rcu_head, ptr, ptr, ptr, i32, i32, ptr, %union.anon.4, %union.anon.5 }
%struct.rcu_head = type { ptr, ptr }
%union.anon.4 = type { %struct.QTailQLink }
%union.anon.5 = type { %struct.QTailQLink }
%struct.PCIExpressDevice = type { i8, i8, i8, i16, %struct.PCIEAERLog, i16, i16, i16, %struct.PCIESriovPF, %struct.PCIESriovVF }
%struct.PCIEAERLog = type { i16, i16, ptr }
%struct.PCIESriovPF = type { i16, [7 x i8], ptr, ptr }
%struct.PCIESriovVF = type { ptr, i16 }
%struct.VFIODevice = type { %struct.anon.6, %struct.anon.7, %struct.anon.8, ptr, ptr, ptr, ptr, ptr, i32, i32, i8, i8, i8, i8, i32, ptr, i32, i32, i32, ptr, ptr, i32, i8, i8 }
%struct.anon.6 = type { ptr, ptr }
%struct.anon.7 = type { ptr, ptr }
%struct.anon.8 = type { ptr, ptr }
%struct.VFIOINTx = type { i8, i8, i8, %struct.EventNotifier, %struct.EventNotifier, %struct.PCIINTxRoute, i32, ptr }
%struct.PCIINTxRoute = type { i32, i32 }
%struct.VFIOBAR = type { %struct.VFIORegion, ptr, i64, i8, i8, i8, %struct.anon.9 }
%struct.VFIORegion = type { ptr, i64, ptr, i64, i32, i32, ptr, i8 }
%struct.anon.9 = type { ptr }
%struct.PCIHostDeviceAddress = type { i32, i32, i32, i32 }
%struct.QemuUUID = type { %union.anon.10 }
%union.anon.10 = type { %struct.anon.11 }
%struct.anon.11 = type { i32, i16, i16, i8, i8, [6 x i8] }
%struct.EventNotifier = type { i32, i32, i8 }
%struct.Notifier = type { ptr, %struct.anon.12 }
%struct.anon.12 = type { ptr, ptr }

@.str.42 = private unnamed_addr constant [10 x i8] c"vfio %s: \00", align 1
@__const.vfio_register_req_notifier.irq_info = private unnamed_addr constant %struct.vfio_irq_info { i32 16, i32 0, i32 4, i32 0 }, align 4
@.str.226 = private unnamed_addr constant [55 x i8] c"vfio: Unable to init event notifier for device request\00", align 1

; Function Attrs: nounwind sspstrong uwtable
define internal void @vfio_register_req_notifier(ptr noundef %vdev) #0 {
entry:
  %vdev.addr = alloca ptr, align 8
  %irq_info = alloca %struct.vfio_irq_info, align 4
  %err = alloca ptr, align 8
  %fd = alloca i32, align 4
  store ptr %vdev, ptr %vdev.addr, align 8
  call void @llvm.memcpy.p0.p0.i64(ptr align 4 %irq_info, ptr align 4 @__const.vfio_register_req_notifier.irq_info, i64 16, i1 false)
  store ptr null, ptr %err, align 8
  %0 = load ptr, ptr %vdev.addr, align 8
  %features = getelementptr inbounds %struct.VFIOPCIDevice, ptr %0, i32 0, i32 26
  %1 = load i32, ptr %features, align 8
  %and = and i32 %1, 2
  %tobool = icmp ne i32 %and, 0
  br i1 %tobool, label %if.end, label %if.then

if.then:                                          ; preds = %entry
  br label %if.end17

if.end:                                           ; preds = %entry
  %2 = load ptr, ptr %vdev.addr, align 8
  %vbasedev = getelementptr inbounds %struct.VFIOPCIDevice, ptr %2, i32 0, i32 1
  %fd1 = getelementptr inbounds %struct.VFIODevice, ptr %vbasedev, i32 0, i32 8
  %3 = load i32, ptr %fd1, align 8
  %call = call i32 (i32, i64, ...) @ioctl(i32 noundef %3, i64 noundef 15213, ptr noundef %irq_info) #16
  %cmp = icmp slt i32 %call, 0
  br i1 %cmp, label %if.then3, label %lor.lhs.false

lor.lhs.false:                                    ; preds = %if.end
  %count = getelementptr inbounds %struct.vfio_irq_info, ptr %irq_info, i32 0, i32 3
  %4 = load i32, ptr %count, align 4
  %cmp2 = icmp ult i32 %4, 1
  br i1 %cmp2, label %if.then3, label %if.end4

if.then3:                                         ; preds = %lor.lhs.false, %if.end
  br label %if.end17

if.end4:                                          ; preds = %lor.lhs.false
  %5 = load ptr, ptr %vdev.addr, align 8
  %req_notifier = getelementptr inbounds %struct.VFIOPCIDevice, ptr %5, i32 0, i32 20
  %call5 = call i32 @event_notifier_init(ptr noundef %req_notifier, i32 noundef 0)
  %tobool6 = icmp ne i32 %call5, 0
  br i1 %tobool6, label %if.then7, label %if.end8

if.then7:                                         ; preds = %if.end4
  call void (ptr, ...) @error_report(ptr noundef @.str.226)
  br label %if.end17

if.end8:                                          ; preds = %if.end4
  %6 = load ptr, ptr %vdev.addr, align 8
  %req_notifier9 = getelementptr inbounds %struct.VFIOPCIDevice, ptr %6, i32 0, i32 20
  %call10 = call i32 @event_notifier_get_fd(ptr noundef %req_notifier9)
  store i32 %call10, ptr %fd, align 4
  %7 = load i32, ptr %fd, align 4
  %8 = load ptr, ptr %vdev.addr, align 8
  call void @qemu_set_fd_handler(i32 noundef %7, ptr noundef @vfio_req_notifier_handler, ptr noundef null, ptr noundef %8)
  %9 = load ptr, ptr %vdev.addr, align 8
  %vbasedev11 = getelementptr inbounds %struct.VFIOPCIDevice, ptr %9, i32 0, i32 1
  %10 = load i32, ptr %fd, align 4
  %call12 = call i32 @vfio_set_irq_signaling(ptr noundef %vbasedev11, i32 noundef 4, i32 noundef 0, i32 noundef 32, i32 noundef %10, ptr noundef %err)
  %tobool13 = icmp ne i32 %call12, 0
  br i1 %tobool13, label %if.then14, label %if.else

if.then14:                                        ; preds = %if.end8
  %11 = load ptr, ptr %err, align 8
  %12 = load ptr, ptr %vdev.addr, align 8
  %vbasedev15 = getelementptr inbounds %struct.VFIOPCIDevice, ptr %12, i32 0, i32 1
  %name = getelementptr inbounds %struct.VFIODevice, ptr %vbasedev15, i32 0, i32 6
  %13 = load ptr, ptr %name, align 8
  call void (ptr, ptr, ...) @error_reportf_err(ptr noundef %11, ptr noundef @.str.42, ptr noundef %13)
  %14 = load i32, ptr %fd, align 4
  %15 = load ptr, ptr %vdev.addr, align 8
  call void @qemu_set_fd_handler(i32 noundef %14, ptr noundef null, ptr noundef null, ptr noundef %15)
  %16 = load ptr, ptr %vdev.addr, align 8
  %req_notifier16 = getelementptr inbounds %struct.VFIOPCIDevice, ptr %16, i32 0, i32 20
  call void @event_notifier_cleanup(ptr noundef %req_notifier16)
  br label %if.end17

if.else:                                          ; preds = %if.end8
  %17 = load ptr, ptr %vdev.addr, align 8
  %req_enabled = getelementptr inbounds %struct.VFIOPCIDevice, ptr %17, i32 0, i32 36
  store i8 1, ptr %req_enabled, align 1
  br label %if.end17

if.end17:                                         ; preds = %if.else, %if.then14, %if.then7, %if.then3, %if.then
  ret void
}