; Function Attrs: nounwind sspstrong uwtable
define internal fastcc void @vfio_register_req_notifier(ptr noundef %vdev) unnamed_addr #0 {
entry:
  %irq_info = alloca %struct.vfio_irq_info, align 4
  %err = alloca ptr, align 8
  call void @llvm.memcpy.p0.p0.i64(ptr noundef nonnull align 4 dereferenceable(16) %irq_info, ptr noundef nonnull align 4 dereferenceable(16) @__const.vfio_register_req_notifier.irq_info, i64 16, i1 false)
  store ptr null, ptr %err, align 8
  %features = getelementptr inbounds nuw i8, ptr %vdev, i64 3512
  %0 = load i32, ptr %features, align 8
  %and = and i32 %0, 2
  %tobool.not = icmp eq i32 %and, 0
  br i1 %tobool.not, label %if.end17, label %if.end

if.end:                                           ; preds = %entry
  %vbasedev = getelementptr inbounds nuw i8, ptr %vdev, i64 2608
  %fd1 = getelementptr inbounds nuw i8, ptr %vdev, i64 2696
  %1 = load i32, ptr %fd1, align 8
  %call = call i32 (i32, i64, ...) @ioctl(i32 noundef %1, i64 noundef 15213, ptr noundef nonnull %irq_info) #23
  %cmp = icmp slt i32 %call, 0
  %count = getelementptr inbounds nuw i8, ptr %irq_info, i64 12
  %2 = load i32, ptr %count, align 4
  %cmp2 = icmp eq i32 %2, 0
  %or.cond = select i1 %cmp, i1 true, i1 %cmp2
  br i1 %or.cond, label %if.end17, label %if.end4

if.end4:                                          ; preds = %if.end
  %req_notifier = getelementptr inbounds nuw i8, ptr %vdev, i64 3476
  %call5 = call i32 @event_notifier_init(ptr noundef nonnull %req_notifier, i32 noundef 0) #23
  %tobool6.not = icmp eq i32 %call5, 0
  br i1 %tobool6.not, label %if.end8, label %if.then7

if.then7:                                         ; preds = %if.end4
  call void (ptr, ...) @error_report(ptr noundef nonnull @.str.226) #23
  br label %if.end17

if.end8:                                          ; preds = %if.end4
  %call10 = call i32 @event_notifier_get_fd(ptr noundef nonnull %req_notifier) #23
  call void @qemu_set_fd_handler(i32 noundef %call10, ptr noundef nonnull @vfio_req_notifier_handler, ptr noundef null, ptr noundef nonnull %vdev) #23
  %call12 = call i32 @vfio_set_irq_signaling(ptr noundef nonnull %vbasedev, i32 noundef 4, i32 noundef 0, i32 noundef 32, i32 noundef %call10, ptr noundef nonnull %err) #23
  %tobool13.not = icmp eq i32 %call12, 0
  br i1 %tobool13.not, label %if.else, label %if.then14

if.then14:                                        ; preds = %if.end8
  %3 = load ptr, ptr %err, align 8
  %name = getelementptr inbounds nuw i8, ptr %vdev, i64 2680
  %4 = load ptr, ptr %name, align 8
  call void (ptr, ptr, ...) @error_reportf_err(ptr noundef %3, ptr noundef nonnull @.str.42, ptr noundef %4) #23
  call void @qemu_set_fd_handler(i32 noundef %call10, ptr noundef null, ptr noundef null, ptr noundef nonnull %vdev) #23
  call void @event_notifier_cleanup(ptr noundef nonnull %req_notifier) #23
  br label %if.end17

if.else:                                          ; preds = %if.end8
  %req_enabled = getelementptr inbounds nuw i8, ptr %vdev, i64 3543
  store i8 1, ptr %req_enabled, align 1
  br label %if.end17

if.end17:                                         ; preds = %if.end, %entry, %if.else, %if.then14, %if.then7
  ret void
}